; Function Attrs: mustprogress nofree norecurse nosync nounwind null_pointer_is_valid sspstrong willreturn memory(none) uwtable
define internal noundef zeroext i1 @check_cgsn(i32 noundef %0, i16 noundef zeroext %1) #7 {
  %3 = icmp eq i32 %0, 2
  br i1 %3, label %4, label %5

4:                                                ; preds = %2
  %switch.selectcmp.case1 = icmp eq i16 %1, 15679
  %switch.selectcmp.case2 = icmp eq i16 %1, 13
  %switch.selectcmp = or i1 %switch.selectcmp.case1, %switch.selectcmp.case2
  br label %5

5:                                                ; preds = %2, %4
  %.0 = phi i1 [ %switch.selectcmp, %4 ], [ false, %2 ]
  ret i1 %.0
}